target datalayout = "e-m:e-p270:32:32-p271:32:32-p272:64:64-i64:64-i128:128-f80:128-n8:16:32:64-S128"
target triple = "x86_64-pc-linux-gnu"

%"class.glslang::TParseVersions" = type { ptr, i8, i32, ptr, i32, i32, %"struct.glslang::SpvVersion", ptr, %"class.glslang::TMap", %"class.glslang::TMap.0", %"class.glslang::TVector", i32, i32, ptr }
%"struct.glslang::SpvVersion" = type <{ i32, i32, i32, i32, i8, [3 x i8] }>
%"class.glslang::TMap" = type { %"class.std::map" }
%"class.std::map" = type { %"class.std::_Rb_tree" }
%"class.std::_Rb_tree" = type { %"struct.std::_Rb_tree<std::__cxx11::basic_string<char, std::char_traits<char>, glslang::pool_allocator<char>>, std::pair<const std::__cxx11::basic_string<char, std::char_traits<char>, glslang::pool_allocator<char>>, glslang::TExtensionBehavior>, std::_Select1st<std::pair<const std::__cxx11::basic_string<char, std::char_traits<char>, glslang::pool_allocator<char>>, glslang::TExtensionBehavior>>, std::less<std::__cxx11::basic_string<char, std::char_traits<char>, glslang::pool_allocator<char>>>, glslang::pool_allocator<std::pair<const std::__cxx11::basic_string<char, std::char_traits<char>, glslang::pool_allocator<char>>, glslang::TExtensionBehavior>>>::_Rb_tree_impl" }
%"struct.std::_Rb_tree<std::__cxx11::basic_string<char, std::char_traits<char>, glslang::pool_allocator<char>>, std::pair<const std::__cxx11::basic_string<char, std::char_traits<char>, glslang::pool_allocator<char>>, glslang::TExtensionBehavior>, std::_Select1st<std::pair<const std::__cxx11::basic_string<char, std::char_traits<char>, glslang::pool_allocator<char>>, glslang::TExtensionBehavior>>, std::less<std::__cxx11::basic_string<char, std::char_traits<char>, glslang::pool_allocator<char>>>, glslang::pool_allocator<std::pair<const std::__cxx11::basic_string<char, std::char_traits<char>, glslang::pool_allocator<char>>, glslang::TExtensionBehavior>>>::_Rb_tree_impl" = type { %"class.glslang::pool_allocator", %"struct.std::_Rb_tree_key_compare", %"struct.std::_Rb_tree_header" }
%"class.glslang::pool_allocator" = type { ptr }
%"struct.std::_Rb_tree_key_compare" = type { %"struct.std::less" }
%"struct.std::less" = type { i8 }
%"struct.std::_Rb_tree_header" = type { %"struct.std::_Rb_tree_node_base", i64 }
%"struct.std::_Rb_tree_node_base" = type { i32, ptr, ptr, ptr }
%"class.glslang::TMap.0" = type { %"class.std::map.1" }
%"class.std::map.1" = type { %"class.std::_Rb_tree.2" }
%"class.std::_Rb_tree.2" = type { %"struct.std::_Rb_tree<std::__cxx11::basic_string<char, std::char_traits<char>, glslang::pool_allocator<char>>, std::pair<const std::__cxx11::basic_string<char, std::char_traits<char>, glslang::pool_allocator<char>>, unsigned int>, std::_Select1st<std::pair<const std::__cxx11::basic_string<char, std::char_traits<char>, glslang::pool_allocator<char>>, unsigned int>>, std::less<std::__cxx11::basic_string<char, std::char_traits<char>, glslang::pool_allocator<char>>>, glslang::pool_allocator<std::pair<const std::__cxx11::basic_string<char, std::char_traits<char>, glslang::pool_allocator<char>>, unsigned int>>>::_Rb_tree_impl" }
%"struct.std::_Rb_tree<std::__cxx11::basic_string<char, std::char_traits<char>, glslang::pool_allocator<char>>, std::pair<const std::__cxx11::basic_string<char, std::char_traits<char>, glslang::pool_allocator<char>>, unsigned int>, std::_Select1st<std::pair<const std::__cxx11::basic_string<char, std::char_traits<char>, glslang::pool_allocator<char>>, unsigned int>>, std::less<std::__cxx11::basic_string<char, std::char_traits<char>, glslang::pool_allocator<char>>>, glslang::pool_allocator<std::pair<const std::__cxx11::basic_string<char, std::char_traits<char>, glslang::pool_allocator<char>>, unsigned int>>>::_Rb_tree_impl" = type { %"class.glslang::pool_allocator.3", %"struct.std::_Rb_tree_key_compare", %"struct.std::_Rb_tree_header" }
%"class.glslang::pool_allocator.3" = type { ptr }
%"class.glslang::TVector" = type { %"class.std::vector" }
%"class.std::vector" = type { %"struct.std::_Vector_base" }
%"struct.std::_Vector_base" = type { %"struct.std::_Vector_base<std::__cxx11::basic_string<char, std::char_traits<char>, glslang::pool_allocator<char>>, glslang::pool_allocator<std::__cxx11::basic_string<char, std::char_traits<char>, glslang::pool_allocator<char>>>>::_Vector_impl" }
%"struct.std::_Vector_base<std::__cxx11::basic_string<char, std::char_traits<char>, glslang::pool_allocator<char>>, glslang::pool_allocator<std::__cxx11::basic_string<char, std::char_traits<char>, glslang::pool_allocator<char>>>>::_Vector_impl" = type { %"class.glslang::pool_allocator.4", %"struct.std::_Vector_base<std::__cxx11::basic_string<char, std::char_traits<char>, glslang::pool_allocator<char>>, glslang::pool_allocator<std::__cxx11::basic_string<char, std::char_traits<char>, glslang::pool_allocator<char>>>>::_Vector_impl_data" }
%"class.glslang::pool_allocator.4" = type { ptr }
%"struct.std::_Vector_base<std::__cxx11::basic_string<char, std::char_traits<char>, glslang::pool_allocator<char>>, glslang::pool_allocator<std::__cxx11::basic_string<char, std::char_traits<char>, glslang::pool_allocator<char>>>>::_Vector_impl_data" = type { ptr, ptr, ptr }

@.str.245 = private unnamed_addr constant [34 x i8] c"%s profile; removed in version %d\00", align 1
@.str.246 = private unnamed_addr constant [23 x i8] c"no longer supported in\00", align 1
@.str.271 = private unnamed_addr constant [5 x i8] c"none\00", align 1
@.str.272 = private unnamed_addr constant [5 x i8] c"core\00", align 1
@.str.273 = private unnamed_addr constant [14 x i8] c"compatibility\00", align 1
@.str.274 = private unnamed_addr constant [3 x i8] c"es\00", align 1
@.str.275 = private unnamed_addr constant [16 x i8] c"unknown profile\00", align 1

; Function Attrs: mustprogress nounwind uwtable
define linkonce_odr noundef ptr @_ZN7glslang11ProfileNameE8EProfile(i32 noundef %0) #0 comdat {
  %2 = alloca ptr, align 8
  %3 = alloca i32, align 4
  store i32 %0, ptr %3, align 4
  %4 = load i32, ptr %3, align 4
  switch i32 %4, label %9 [
    i32 1, label %5
    i32 2, label %6
    i32 4, label %7
    i32 8, label %8
  ]

5:                                                ; preds = %1
  store ptr @.str.271, ptr %2, align 8
  br label %10

6:                                                ; preds = %1
  store ptr @.str.272, ptr %2, align 8
  br label %10

7:                                                ; preds = %1
  store ptr @.str.273, ptr %2, align 8
  br label %10

8:                                                ; preds = %1
  store ptr @.str.274, ptr %2, align 8
  br label %10

9:                                                ; preds = %1
  store ptr @.str.275, ptr %2, align 8
  br label %10

10:                                               ; preds = %9, %8, %7, %6, %5
  %11 = load ptr, ptr %2, align 8
  ret ptr %11
}

; Function Attrs: mustprogress nounwind uwtable
define void @_ZN7glslang14TParseVersions17requireNotRemovedERKNS_10TSourceLocEiiPKc(ptr noundef nonnull align 8 dereferenceable(224) %0, ptr noundef nonnull align 8 dereferenceable(24) %1, i32 noundef %2, i32 noundef %3, ptr noundef %4) unnamed_addr #0 align 2 {
  %6 = alloca ptr, align 8
  %7 = alloca ptr, align 8
  %8 = alloca i32, align 4
  %9 = alloca i32, align 4
  %10 = alloca ptr, align 8
  %11 = alloca i32, align 4
  %12 = alloca [60 x i8], align 16
  store ptr %0, ptr %6, align 8
  store ptr %1, ptr %7, align 8
  store i32 %2, ptr %8, align 4
  store i32 %3, ptr %9, align 4
  store ptr %4, ptr %10, align 8
  %13 = load ptr, ptr %6, align 8
  %14 = getelementptr inbounds %"class.glslang::TParseVersions", ptr %13, i32 0, i32 2
  %15 = load i32, ptr %14, align 4
  %16 = load i32, ptr %8, align 4
  %17 = and i32 %15, %16
  %18 = icmp ne i32 %17, 0
  br i1 %18, label %19, label %38

19:                                               ; preds = %5
  %20 = getelementptr inbounds %"class.glslang::TParseVersions", ptr %13, i32 0, i32 4
  %21 = load i32, ptr %20, align 8
  %22 = load i32, ptr %9, align 4
  %23 = icmp sge i32 %21, %22
  br i1 %23, label %24, label %37

24:                                               ; preds = %19
  store i32 60, ptr %11, align 4
  %25 = getelementptr inbounds [60 x i8], ptr %12, i64 0, i64 0
  %26 = getelementptr inbounds %"class.glslang::TParseVersions", ptr %13, i32 0, i32 2
  %27 = load i32, ptr %26, align 4
  %28 = call noundef ptr @_ZN7glslang11ProfileNameE8EProfile(i32 noundef %27)
  %29 = load i32, ptr %9, align 4
  %30 = call i32 (ptr, i64, ptr, ...) @snprintf(ptr noundef %25, i64 noundef 60, ptr noundef @.str.245, ptr noundef %28, i32 noundef %29) #8
  %31 = load ptr, ptr %7, align 8
  %32 = load ptr, ptr %10, align 8
  %33 = getelementptr inbounds [60 x i8], ptr %12, i64 0, i64 0
  %34 = load ptr, ptr %13, align 8
  %35 = getelementptr inbounds ptr, ptr %34, i64 43
  %36 = load ptr, ptr %35, align 8
  call void (ptr, ptr, ptr, ptr, ptr, ...) %36(ptr noundef nonnull align 8 dereferenceable(224) %13, ptr noundef nonnull align 8 dereferenceable(24) %31, ptr noundef @.str.246, ptr noundef %32, ptr noundef %33)
  br label %37

37:                                               ; preds = %24, %19
  br label %38

38:                                               ; preds = %37, %5
  ret void
}