; Function Attrs: mustprogress nounwind uwtable
define void @_ZN7glslang14TParseVersions17requireNotRemovedERKNS_10TSourceLocEiiPKc(ptr noundef nonnull align 8 dereferenceable(224) %0, ptr noundef nonnull align 8 dereferenceable(24) %1, i32 noundef %2, i32 noundef %3, ptr noundef %4) unnamed_addr #0 align 2 {
  %6 = alloca [60 x i8], align 16
  %7 = getelementptr inbounds i8, ptr %0, i64 12
  %8 = load i32, ptr %7, align 4
  %9 = and i32 %8, %2
  %.not = icmp eq i32 %9, 0
  %10 = getelementptr inbounds i8, ptr %0, i64 24
  %11 = load i32, ptr %10, align 8
  %.not5 = icmp slt i32 %11, %3
  %or.cond = select i1 %.not, i1 true, i1 %.not5
  br i1 %or.cond, label %19, label %12

12:                                               ; preds = %5
  %switch.tableidx = add i32 %8, -1
  %13 = icmp ult i32 %switch.tableidx, 8
  br i1 %13, label %switch.lookup, label %_ZN7glslang11ProfileNameE8EProfile.exit

switch.lookup:                                    ; preds = %12
  %14 = zext nneg i32 %switch.tableidx to i64
  %switch.gep = getelementptr inbounds [8 x ptr], ptr @switch.table._ZN7glslang14TParseVersions10int64CheckERKNS_10TSourceLocEPKcb, i64 0, i64 %14
  %switch.load = load ptr, ptr %switch.gep, align 8
  br label %_ZN7glslang11ProfileNameE8EProfile.exit

_ZN7glslang11ProfileNameE8EProfile.exit:          ; preds = %12, %switch.lookup
  %.0.i = phi ptr [ %switch.load, %switch.lookup ], [ @.str.275, %12 ]
  %15 = call i32 (ptr, i64, ptr, ...) @snprintf(ptr noundef nonnull dereferenceable(1) %6, i64 noundef 60, ptr noundef nonnull @.str.245, ptr noundef nonnull %.0.i, i32 noundef %3) #15
  %16 = load ptr, ptr %0, align 8
  %17 = getelementptr inbounds i8, ptr %16, i64 344
  %18 = load ptr, ptr %17, align 8
  call void (ptr, ptr, ptr, ptr, ptr, ...) %18(ptr noundef nonnull align 8 dereferenceable(224) %0, ptr noundef nonnull align 8 dereferenceable(24) %1, ptr noundef nonnull @.str.246, ptr noundef %4, ptr noundef nonnull %6) #15
  br label %19

19:                                               ; preds = %_ZN7glslang11ProfileNameE8EProfile.exit, %5
  ret void
}